; Function Attrs: mustprogress nofree norecurse nosync nounwind willreturn memory(read, inaccessiblemem: none) uwtable
define hidden ptr @CBB_data(ptr noundef readonly captures(none) %0) local_unnamed_addr #10 {
  %2 = load ptr, ptr %0, align 8, !tbaa !16
  %3 = load ptr, ptr %2, align 8, !tbaa !6
  %4 = getelementptr inbounds nuw i8, ptr %0, i64 16
  %5 = load i64, ptr %4, align 8, !tbaa !25
  %6 = getelementptr inbounds nuw i8, ptr %3, i64 %5
  %7 = getelementptr inbounds nuw i8, ptr %0, i64 24
  %8 = load i8, ptr %7, align 8, !tbaa !24
  %9 = zext i8 %8 to i64
  %10 = getelementptr inbounds nuw i8, ptr %6, i64 %9
  ret ptr %10
}